(dp0
S'ppn_mode'
p1
S'heavysimple'
p2
sS'tzrmjd_middle'
p3
S'auto'
p4
sS'priors'
p5
(S'dbeta'
p6
S'dgamma'
p7
tp8
sS't2_astrometry'
p9
I01
sS'fit_pm'
p10
I00
sS'fit_px'
p11
I00
sS'kopeikin'
p12
I00
sS'efac'
p13
((S'AO1440'
p14
F1.45
tp15
(S'GBT1500'
p16
F1.11
tp17
(S'WSRT1400'
p18
F1.45
tp19
tp20
sS'parfile'
p21
S'0337_tempo2_px_optical.par'
p22
sS'fit_pos'
p23
I01
sS'files'
p24
S'0337+17-anne-2014-09-22'
p25
s.