(dp0
S'ppn_mode'
p1
S'heavysimple'
p2
sS'tzrmjd_middle'
p3
S'auto'
p4
sS'only_tels'
p5
(S'GBT1500'
p6
S'WSRT1400'
p7
tp8
sS'priors'
p9
(S'dbeta'
p10
S'dgamma'
p11
tp12
sS't2_astrometry'
p13
I01
sS'fit_pm'
p14
I00
sS'fit_px'
p15
I00
sS'kopeikin'
p16
I00
sS'parfile'
p17
S'0337_tempo2_px_optical.par'
p18
sS'fit_pos'
p19
I01
sS'files'
p20
S'0337+17-anne-2014-09-22'
p21
s.