(dp0
S'ppn_mode'
p1
S'heavysimple'
p2
sS'tzrmjd_middle'
p3
S'auto'
p4
sS'priors'
p5
(S'dbeta'
p6
S'dgamma'
p7
tp8
sS't2_astrometry'
p9
I00
sS'fit_pm'
p10
I00
sS'fit_px'
p11
I00
sS'linear_jumps'
p12
I01
sS'kopeikin'
p13
I00
sS'efac'
p14
((S'AO1440'
p15
F1.45
tp16
(S'GBT1500'
p17
F1.11
tp18
(S'GBT1500s'
p19
F1.11
tp20
(S'WSRT1400'
p21
F1.45
tp22
tp23
sS'fit_pos'
p24
I00
sS'files'
p25
S'0337_6vec_table_150131_pulses.fits'
p26
s.