(dp0
S'ppn_mode'
p1
S'heavysimple'
p2
sS'tzrmjd_middle'
p3
S'auto'
p4
sS'priors'
p5
(S'dbeta'
p6
S'dgamma'
p7
tp8
sS't2_astrometry'
p9
I01
sS'fit_pm'
p10
I00
sS'fit_px'
p11
I00
sS'kopeikin'
p12
I00
sS'parfile'
p13
S'0337_tempo2_px_optical.par'
p14
sS'fit_pos'
p15
I01
sS'files'
p16
S'0337+17-anne-2014-09-29'
p17
s.