(dp0
S'wideband'
p1
(dp2
S'generic'
p3
(dp4
S'cal_db'
p5
S'data/cal/cal-noflux.db'
p6
ss(S'GBT'
p7
I1400
tp8
(dp9
s(S'WSRT'
p10
I1400
tp11
(dp12
S'toa_time'
p13
F600.0
ss(S'AO'
p14
I1400
tp15
(dp16
ssS'singlefrequency'
p17
(dp18
g3
(dp19
S'rm'
p20
I30
ss(S'GBT'
p21
I1400
tp22
(dp23
s(S'WSRT'
p24
I1400
tp25
(dp26
g13
F600.0
ss(S'AO'
p27
I1400
tp28
(dp29
ssS'onescintle'
p30
(dp31
g3
(dp32
g20
I30
sg13
F1200.0
sS'toa_bw'
p33
F5.0
ss(S'GBT'
p34
I1400
tp35
(dp36
s(S'WSRT'
p37
I1400
tp38
(dp39
g13
F7200.0
sg33
F5.0
ss(S'AO'
p40
I1400
tp41
(dp42
s(S'AO'
p43
I430
tp44
(dp45
g33
F10.0
ss(S'WSRT'
p46
I350
tp47
(dp48
g13
F1200.0
sg33
F30.0
sssS'subband'
p49
(dp50
g3
(dp51
g20
I30
sg13
F60.0
sg33
F100.0
ss(S'GBT'
p52
I1400
tp53
(dp54
s(S'WSRT'
p55
I1400
tp56
(dp57
g13
F1200.0
sg33
F60.0
ss(S'AO'
p58
I1400
tp59
(dp60
s(S'AO'
p61
I430
tp62
(dp63
g33
F10.0
ss(S'WSRT'
p64
I350
tp65
(dp66
g13
F1200.0
sg33
F30.0
sssS'tuned'
p67
(dp68
g3
(dp69
g20
I30
sg13
F1200.0
sg33
F20.0
ss(S'GBT'
p70
I1400
tp71
(dp72
s(S'WSRT'
p73
I1400
tp74
(dp75
g13
F7200.0
ss(S'AO'
p76
I1400
tp77
(dp78
s(S'AO'
p79
I430
tp80
(dp81
g33
Finf
ss(S'WSRT'
p82
I350
tp83
(dp84
g13
F1200.0
sg33
Finf
sss.