(dp0
S'onescintle'
p1
(dp2
S'generic'
p3
(dp4
S'rm'
p5
I30
sS'toa_time'
p6
F1200.0
sS'toa_bw'
p7
F5.0
ss(S'GBT'
p8
I1400
tp9
(dp10
s(S'WSRT'
p11
I1400
tp12
(dp13
g6
F7200.0
sg7
F5.0
ss(S'AO'
p14
I1400
tp15
(dp16
s(S'AO'
p17
I430
tp18
(dp19
g7
F10.0
ss(S'WSRT'
p20
I350
tp21
(dp22
g6
F1200.0
sg7
F30.0
sssS'tuned'
p23
(dp24
(S'AO'
p25
I350
tp26
(dp27
g7
Finf
ssg3
(dp28
g5
I30
sg6
F1200.0
sg7
F20.0
ss(S'GBT'
p29
I1400
tp30
(dp31
s(S'WSRT'
p32
I1400
tp33
(dp34
g6
F7200.0
ss(S'AO'
p35
I1400
tp36
(dp37
s(S'AO'
p38
I430
tp39
(dp40
g7
Finf
ss(S'WSRT'
p41
I350
tp42
(dp43
g6
F1200.0
sg7
Finf
sssS'singlefrequency'
p44
(dp45
g3
(dp46
g5
I30
ss(S'GBT'
p47
I1400
tp48
(dp49
s(S'WSRT'
p50
I1400
tp51
(dp52
g6
F600.0
ss(S'AO'
p53
I1400
tp54
(dp55
ssS'subband'
p56
(dp57
g3
(dp58
g5
I30
sg6
F60.0
sg7
F100.0
ss(S'GBT'
p59
I1400
tp60
(dp61
s(S'WSRT'
p62
I1400
tp63
(dp64
g6
F1200.0
sg7
F60.0
ss(S'AO'
p65
I1400
tp66
(dp67
s(S'AO'
p68
I430
tp69
(dp70
g7
F10.0
ss(S'WSRT'
p71
I350
tp72
(dp73
g6
F1200.0
sg7
F30.0
sssS'wideband'
p74
(dp75
g3
(dp76
S'cal_db'
p77
S'data/cal/cal-noflux.db'
p78
ss(S'GBT'
p79
I1400
tp80
(dp81
s(S'WSRT'
p82
I1400
tp83
(dp84
g6
F600.0
ss(S'AO'
p85
I1400
tp86
(dp87
ssS'sband'
p88
(dp89
g3
(dp90
g5
I30
sg6
I1200
sg7
I40
ss(S'AO'
p91
I2000
tp92
(dp93
s(S'AO'
p94
I3000
tp95
(dp96
ssS'tuned2'
p97
(dp98
(S'AO'
p99
I350
tp100
(dp101
g7
Finf
ssg3
(dp102
g5
I30
sg6
F1200.0
sg7
F20.0
ss(S'GBT'
p103
I1400
tp104
(dp105
s(S'WSRT'
p106
I1400
tp107
(dp108
g6
F7200.0
ss(S'AO'
p109
I1400
tp110
(dp111
s(S'AO'
p112
I430
tp113
(dp114
g7
Finf
ss(S'WSRT'
p115
I350
tp116
(dp117
g6
F1200.0
sg7
Finf
sss.