(dp0
S'onescintle'
p1
(dp2
S'generic'
p3
(dp4
S'rm'
p5
I30
sS'toa_time'
p6
F1200.0
sS'toa_bw'
p7
F5.0
ss(S'GBT'
p8
I1400
tp9
(dp10
s(S'WSRT'
p11
I1400
tp12
(dp13
g6
F7200.0
sg7
F5.0
ss(S'AO'
p14
I1400
tp15
(dp16
s(S'AO'
p17
I430
tp18
(dp19
g7
F10.0
ss(S'WSRT'
p20
I350
tp21
(dp22
g6
F1200.0
sg7
F30.0
sssS'tuned'
p23
(dp24
g3
(dp25
g5
I30
sg6
F1200.0
sg7
F20.0
ss(S'GBT'
p26
I1400
tp27
(dp28
s(S'WSRT'
p29
I1400
tp30
(dp31
g6
F7200.0
ss(S'AO'
p32
I1400
tp33
(dp34
s(S'AO'
p35
I430
tp36
(dp37
g7
Finf
ss(S'WSRT'
p38
I350
tp39
(dp40
g6
F1200.0
sg7
Finf
sssS'singlefrequency'
p41
(dp42
g3
(dp43
g5
I30
ss(S'GBT'
p44
I1400
tp45
(dp46
s(S'WSRT'
p47
I1400
tp48
(dp49
g6
F600.0
ss(S'AO'
p50
I1400
tp51
(dp52
ssS'subband'
p53
(dp54
g3
(dp55
g5
I30
sg6
F60.0
sg7
F100.0
ss(S'GBT'
p56
I1400
tp57
(dp58
s(S'WSRT'
p59
I1400
tp60
(dp61
g6
F1200.0
sg7
F60.0
ss(S'AO'
p62
I1400
tp63
(dp64
s(S'AO'
p65
I430
tp66
(dp67
g7
F10.0
ss(S'WSRT'
p68
I350
tp69
(dp70
g6
F1200.0
sg7
F30.0
sssS'wideband'
p71
(dp72
g3
(dp73
S'cal_db'
p74
S'data/cal/cal-noflux.db'
p75
ss(S'GBT'
p76
I1400
tp77
(dp78
s(S'WSRT'
p79
I1400
tp80
(dp81
g6
F600.0
ss(S'AO'
p82
I1400
tp83
(dp84
ssS'sband'
p85
(dp86
g3
(dp87
g5
I30
sg6
I1200
sg7
I40
ss(S'AO'
p88
I2000
tp89
(dp90
s(S'AO'
p91
I3000
tp92
(dp93
ss.