(dp1
S'ppn_mode'
p2
S'heavysimple'
p3
sS'files'
p4
S'tuned2_aligned_pulses_1400_nosun2'
p5
sS'kopeikin'
p6
I00
sS'efac'
p7
I1
sS't2_astrometry'
p8
I01
sS'fit_pm'
p9
I01
sS'tzrmjd_middle'
p10
S'auto'
p11
sS'linear_dm'
p12
I00
sS'fit_pos'
p13
I01
sS'variable_dm'
p14
I01
sS'fit_px'
p15
I01
sS'fdn_range'
p16
(I1
I5
tp17
sS'priors'
p18
(S'dbeta'
p19
S'dgamma'
p20
tp21
sS'toa_mode'
p22
S'pipeline'
p23
sS'variable_ipm'
p24
I01
sS'dmx_span'
p25
F182.62125
sS'parfile'
p26
S'0337_de430.par'
p27
sS'linear_jumps'
p28
I01
s.