(dp1
S'ppn_mode'
p2
S'GR'
p3
sS'shapiro'
p4
I01
sS'only_tels'
p5
NsS'fit_pm'
p6
I01
sS'general'
p7
I01
sS'fit_pos'
p8
I01
sS'files'
p9
S'fake_delta'
p10
sS'fdn_range'
p11
(I1
I5
tp12
sS'priors'
p13
(S'dbeta'
S'dgamma'
tp14
sS'toa_mode'
p15
S'pipeline'
p16
sS'fit_px'
p17
I01
sS'tol'
p18
F9.9999999999999998e-17
sS'tzrmjd_middle'
p19
S'auto'
p20
sS'use_quad'
p21
I00
sS'matrix_mode'
p22
I0
sS'efac'
p23
I1
sS't2_astrometry'
p24
I01
sS'linear_dm'
p25
I01
sS'special'
p26
I01
sS'reference_f0'
p27
F365.95336876828094
sS'linear_jumps'
p28
I01
sS'kopeikin'
p29
I00
sS'parfile'
p30
S'0337_tempo2_px_optical_dmcorr.par'
p31
s.