(dp0
S'ppn_mode'
p1
S'GR'
p2
sS'tzrmjd_middle'
p3
S'auto'
p4
sS't2_astrometry'
p5
I01
sS'fit_pm'
p6
I00
sS'fit_px'
p7
I00
sS'kopeikin'
p8
I00
sS'parfile'
p9
S'0337_tempo2_px_optical.par'
p10
sS'fit_pos'
p11
I00
sS'files'
p12
S'0337+17-anne-2014-02-04c'
p13
s.