(dp0
S'ppn_mode'
p1
S'GR'
p2
sS'tzrmjd_middle'
p3
S'auto'
p4
sS'kopeikin'
p5
I00
sS'efac'
p6
((S'AO1440'
p7
F1.0
tp8
(S'GBT1500'
p9
F1.0
tp10
(S'WSRT1400'
p11
F1.0
tp12
tp13
sS't2_astrometry'
p14
I01
sS'fit_pm'
p15
I01
sS'toa_mode'
p16
S'pipeline'
p17
sS'fit_px'
p18
I01
sS'linear_jumps'
p19
I01
sS'linear_dm'
p20
I01
sS'parfile'
p21
S'0337_tempo2_px_optical.par'
p22
sS'fit_pos'
p23
I01
sS'files'
p24
S'tuned_mueller_pulses_selected'
p25
s.