(dp0
S'ppn_mode'
p1
S'heavysimple'
p2
sS'tzrmjd_middle'
p3
S'auto'
p4
sS'kopeikin'
p5
I00
sS'efac'
p6
I1
sS't2_astrometry'
p7
I01
sS'fit_pm'
p8
I01
sS'toa_mode'
p9
S'pipeline'
p10
sS'fit_px'
p11
I01
sS'linear_jumps'
p12
I01
sS'linear_dm'
p13
I01
sS'parfile'
p14
S'0337_tempo2_px_optical_dmcorr.par'
p15
sS'fit_pos'
p16
I01
sS'files'
p17
S'tuned2_aligned_pulses_1400'
p18
s.