(dp0
S'ppn_mode'
p1
S'GR'
p2
sS'tzrmjd_middle'
p3
S'auto'
p4
sS'efac'
p5
((S'AO1440'
p6
F1.0
tp7
(S'GBT1500'
p8
F1.0
tp9
(S'WSRT1400'
p10
F1.0
tp11
tp12
sS't2_astrometry'
p13
I01
sS'fit_pm'
p14
I01
sS'toa_mode'
p15
S'pipeline'
p16
sS'fit_px'
p17
I01
sS'linear_jumps'
p18
I01
sS'kopeikin'
p19
I00
sS'parfile'
p20
S'0337_tempo2_px_optical.par'
p21
sS'fit_pos'
p22
I01
sS'files'
p23
S'tuned_mueller_pulses_selected'
p24
s.