(dp0
S'ppn_mode'
p1
S'heavysimple'
p2
sS'tzrmjd_middle'
p3
S'auto'
p4
sS'fdn_range'
p5
(I1
I5
tp6
sS'linear_dm'
p7
I01
sS'priors'
p8
(S'dbeta'
p9
S'dgamma'
p10
tp11
sS't2_astrometry'
p12
I01
sS'fit_pm'
p13
I01
sS'toa_mode'
p14
S'pipeline'
p15
sS'fit_px'
p16
I01
sS'linear_jumps'
p17
I01
sS'kopeikin'
p18
I00
sS'efac'
p19
I1
sS'parfile'
p20
S'0337_de430.par'
p21
sS'fit_pos'
p22
I01
sS'files'
p23
S'tuned2_aligned_pulses_1400_nosun2'
p24
s.